target datalayout = "e-m:e-p270:32:32-p271:32:32-p272:64:64-i64:64-i128:128-f80:128-n8:16:32:64-S128"
target triple = "x86_64-pc-linux-gnu"

; Function Attrs: nounwind uwtable
define dso_local i32 @strhash(ptr noundef %0) #0 {
  %2 = alloca ptr, align 8
  %3 = alloca i32, align 4
  %4 = alloca i32, align 4
  store ptr %0, ptr %2, align 8, !tbaa !4
  call void @llvm.lifetime.start.p0(i64 4, ptr %3) #9
  call void @llvm.lifetime.start.p0(i64 4, ptr %4) #9
  store i32 -2128831035, ptr %4, align 4, !tbaa !9
  br label %5

5:                                                ; preds = %11, %1
  %6 = load ptr, ptr %2, align 8, !tbaa !4
  %7 = getelementptr inbounds nuw i8, ptr %6, i32 1
  store ptr %7, ptr %2, align 8, !tbaa !4
  %8 = load i8, ptr %6, align 1, !tbaa !11
  %9 = zext i8 %8 to i32
  store i32 %9, ptr %3, align 4, !tbaa !9
  %10 = icmp ne i32 %9, 0
  br i1 %10, label %11, label %16

11:                                               ; preds = %5
  %12 = load i32, ptr %4, align 4, !tbaa !9
  %13 = mul i32 %12, 16777619
  %14 = load i32, ptr %3, align 4, !tbaa !9
  %15 = xor i32 %13, %14
  store i32 %15, ptr %4, align 4, !tbaa !9
  br label %5, !llvm.loop !12

16:                                               ; preds = %5
  %17 = load i32, ptr %4, align 4, !tbaa !9
  call void @llvm.lifetime.end.p0(i64 4, ptr %4) #9
  call void @llvm.lifetime.end.p0(i64 4, ptr %3) #9
  ret i32 %17
}