; Function Attrs: nofree norecurse nosync nounwind memory(argmem: read) uwtable
define dso_local i32 @strhash(ptr noundef readonly captures(none) %0) local_unnamed_addr #0 {
  %2 = load i8, ptr %0, align 1, !tbaa !4
  %.not5 = icmp eq i8 %2, 0
  br i1 %.not5, label %._crit_edge, label %.lr.ph

.lr.ph:                                           ; preds = %1, %.lr.ph
  %3 = phi i8 [ %8, %.lr.ph ], [ %2, %1 ]
  %.07 = phi i32 [ %7, %.lr.ph ], [ -2128831035, %1 ]
  %.036 = phi ptr [ %5, %.lr.ph ], [ %0, %1 ]
  %4 = zext i8 %3 to i32
  %5 = getelementptr inbounds nuw i8, ptr %.036, i64 1
  %6 = mul i32 %.07, 16777619
  %7 = xor i32 %6, %4
  %8 = load i8, ptr %5, align 1, !tbaa !4
  %.not = icmp eq i8 %8, 0
  br i1 %.not, label %._crit_edge, label %.lr.ph, !llvm.loop !7

._crit_edge:                                      ; preds = %.lr.ph, %1
  %.0.lcssa = phi i32 [ -2128831035, %1 ], [ %7, %.lr.ph ]
  ret i32 %.0.lcssa
}